; Function Attrs: mustprogress nofree nosync nounwind willreturn memory(read, inaccessiblemem: none) uwtable
define internal fastcc noundef zeroext i1 @_ZN5arrow3ipc12_GLOBAL__N_113HasNestedDictERKNS_9ArrayDataE(ptr noundef nonnull readonly align 8 captures(none) dereferenceable(120) %0) unnamed_addr #24 {
  %2 = load ptr, ptr %0, align 8, !tbaa !126
  %3 = getelementptr inbounds nuw i8, ptr %2, i64 40
  %4 = load i32, ptr %3, align 8, !tbaa !724
  %5 = icmp eq i32 %4, 29
  br i1 %5, label %.loopexit, label %6

6:                                                ; preds = %1
  %7 = getelementptr inbounds nuw i8, ptr %0, i64 64
  %8 = load ptr, ptr %7, align 8, !tbaa !1894
  %9 = getelementptr inbounds nuw i8, ptr %0, i64 72
  %10 = load ptr, ptr %9, align 8, !tbaa !1894
  %.not12.not = icmp eq ptr %8, %10
  br i1 %.not12.not, label %.loopexit, label %.lr.ph

.lr.ph:                                           ; preds = %6, %.lr.ph
  %.sroa.09.013 = phi ptr [ %13, %.lr.ph ], [ %8, %6 ]
  %11 = load ptr, ptr %.sroa.09.013, align 8, !tbaa !123
  %12 = tail call fastcc noundef zeroext i1 @_ZN5arrow3ipc12_GLOBAL__N_113HasNestedDictERKNS_9ArrayDataE(ptr noundef nonnull align 8 dereferenceable(120) %11)
  %13 = getelementptr inbounds nuw i8, ptr %.sroa.09.013, i64 16
  %.not.not = icmp eq ptr %13, %10
  %or.cond = select i1 %12, i1 true, i1 %.not.not
  br i1 %or.cond, label %.loopexit, label %.lr.ph

.loopexit:                                        ; preds = %.lr.ph, %6, %1
  %.0 = phi i1 [ true, %1 ], [ false, %6 ], [ %12, %.lr.ph ]
  ret i1 %.0
}